; ModuleID = 'source-C-CXX/26/868.c'
source_filename = "source-C-CXX/26/868.c"
target datalayout = "e-m:e-p270:32:32-p271:32:32-p272:64:64-i64:64-f80:128-n8:16:32:64-S128"
target triple = "x86_64-pc-linux-gnu"

@.str = private unnamed_addr constant [3 x i8] c"%d\00", align 1
@.str.1 = private unnamed_addr constant [10 x i8] c"%lf%lf%lf\00", align 1
@.str.2 = private unnamed_addr constant [17 x i8] c"x1=%.5f;x2=%.5f\0A\00", align 1
@.str.3 = private unnamed_addr constant [12 x i8] c"x1=x2=%.5f\0A\00", align 1
@.str.4 = private unnamed_addr constant [35 x i8] c"x1=0.00000+%.5fi;x2=0.00000-%.5fi\0A\00", align 1
@.str.5 = private unnamed_addr constant [29 x i8] c"x1=%.5f+%.5fi;x2=%.5f-%.5fi\0A\00", align 1

; Function Attrs: nofree nounwind sspstrong uwtable
define dso_local i32 @main() local_unnamed_addr #0 {
  %1 = alloca i32, align 4
  %2 = alloca double, align 8
  %3 = alloca double, align 8
  %4 = alloca double, align 8
  %5 = bitcast i32* %1 to i8*
  call void @llvm.lifetime.start.p0i8(i64 4, i8* nonnull %5) #4
  %6 = bitcast double* %2 to i8*
  call void @llvm.lifetime.start.p0i8(i64 8, i8* nonnull %6) #4
  %7 = bitcast double* %3 to i8*
  call void @llvm.lifetime.start.p0i8(i64 8, i8* nonnull %7) #4
  %8 = bitcast double* %4 to i8*
  call void @llvm.lifetime.start.p0i8(i64 8, i8* nonnull %8) #4
  %9 = call i32 (i8*, ...) @__isoc99_scanf(i8* getelementptr inbounds ([3 x i8], [3 x i8]* @.str, i64 0, i64 0), i32* nonnull %1)
  br label %10

10:                                               ; preds = %86, %0
  %11 = phi i32 [ 1, %0 ], [ %87, %86 ]
  %12 = call i32 (i8*, ...) @__isoc99_scanf(i8* getelementptr inbounds ([10 x i8], [10 x i8]* @.str.1, i64 0, i64 0), double* nonnull %2, double* nonnull %3, double* nonnull %4)
  %13 = load double, double* %3, align 8, !tbaa !5
  %14 = fmul double %13, %13
  %15 = load double, double* %2, align 8, !tbaa !5
  %16 = fmul double %15, 4.000000e+00
  %17 = load double, double* %4, align 8, !tbaa !5
  %18 = fmul double %16, %17
  %19 = fsub double %14, %18
  %20 = fcmp ult double %19, 0.000000e+00
  br i1 %20, label %47, label %21

21:                                               ; preds = %10
  %22 = fcmp ogt double %19, 0.000000e+00
  br i1 %22, label %23, label %42

23:                                               ; preds = %21
  %24 = call double @sqrt(double %19) #4
  %25 = fsub double %24, %13
  %26 = load double, double* %2, align 8, !tbaa !5
  %27 = fmul double %26, 2.000000e+00
  %28 = fdiv double %25, %27
  %29 = load double, double* %3, align 8, !tbaa !5
  %30 = fneg double %29
  %31 = fmul double %29, %29
  %32 = fmul double %26, 4.000000e+00
  %33 = load double, double* %4, align 8, !tbaa !5
  %34 = fmul double %32, %33
  %35 = fsub double %31, %34
  %36 = call double @sqrt(double %35) #4
  %37 = fsub double %30, %36
  %38 = load double, double* %2, align 8, !tbaa !5
  %39 = fmul double %38, 2.000000e+00
  %40 = fdiv double %37, %39
  %41 = call i32 (i8*, ...) @printf(i8* nonnull dereferenceable(1) getelementptr inbounds ([17 x i8], [17 x i8]* @.str.2, i64 0, i64 0), double %28, double %40)
  br label %86

42:                                               ; preds = %21
  %43 = fneg double %13
  %44 = fmul double %15, 2.000000e+00
  %45 = fdiv double %43, %44
  %46 = call i32 (i8*, ...) @printf(i8* nonnull dereferenceable(1) getelementptr inbounds ([12 x i8], [12 x i8]* @.str.3, i64 0, i64 0), double %45)
  br label %86

47:                                               ; preds = %10
  %48 = fcmp oeq double %13, 0.000000e+00
  br i1 %48, label %49, label %66

49:                                               ; preds = %47
  %50 = fsub double %18, %14
  %51 = call double @sqrt(double %50) #4
  %52 = load double, double* %2, align 8, !tbaa !5
  %53 = fmul double %52, 2.000000e+00
  %54 = fdiv double %51, %53
  %55 = load double, double* %3, align 8, !tbaa !5
  %56 = fmul double %52, 4.000000e+00
  %57 = load double, double* %4, align 8, !tbaa !5
  %58 = fmul double %56, %57
  %59 = fmul double %55, %55
  %60 = fsub double %58, %59
  %61 = call double @sqrt(double %60) #4
  %62 = load double, double* %2, align 8, !tbaa !5
  %63 = fmul double %62, 2.000000e+00
  %64 = fdiv double %61, %63
  %65 = call i32 (i8*, ...) @printf(i8* nonnull dereferenceable(1) getelementptr inbounds ([35 x i8], [35 x i8]* @.str.4, i64 0, i64 0), double %54, double %64)
  br label %86

66:                                               ; preds = %47
  %67 = fneg double %13
  %68 = fmul double %15, 2.000000e+00
  %69 = fdiv double %67, %68
  %70 = fsub double %18, %14
  %71 = call double @sqrt(double %70) #4
  %72 = load double, double* %2, align 8, !tbaa !5
  %73 = fmul double %72, 2.000000e+00
  %74 = fdiv double %71, %73
  %75 = load double, double* %3, align 8, !tbaa !5
  %76 = fmul double %72, 4.000000e+00
  %77 = load double, double* %4, align 8, !tbaa !5
  %78 = fmul double %76, %77
  %79 = fmul double %75, %75
  %80 = fsub double %78, %79
  %81 = call double @sqrt(double %80) #4
  %82 = load double, double* %2, align 8, !tbaa !5
  %83 = fmul double %82, 2.000000e+00
  %84 = fdiv double %81, %83
  %85 = call i32 (i8*, ...) @printf(i8* nonnull dereferenceable(1) getelementptr inbounds ([29 x i8], [29 x i8]* @.str.5, i64 0, i64 0), double %69, double %74, double %69, double %84)
  br label %86

86:                                               ; preds = %49, %66, %42, %23
  %87 = add nuw nsw i32 %11, 1
  %88 = load i32, i32* %1, align 4, !tbaa !9
  %89 = icmp slt i32 %11, %88
  br i1 %89, label %10, label %90, !llvm.loop !11

90:                                               ; preds = %86
  call void @llvm.lifetime.end.p0i8(i64 8, i8* nonnull %8) #4
  call void @llvm.lifetime.end.p0i8(i64 8, i8* nonnull %7) #4
  call void @llvm.lifetime.end.p0i8(i64 8, i8* nonnull %6) #4
  call void @llvm.lifetime.end.p0i8(i64 4, i8* nonnull %5) #4
  ret i32 0
}

; Function Attrs: argmemonly mustprogress nofree nosync nounwind willreturn
declare void @llvm.lifetime.start.p0i8(i64 immarg, i8* nocapture) #1

; Function Attrs: nofree nounwind
declare noundef i32 @__isoc99_scanf(i8* nocapture noundef readonly, ...) local_unnamed_addr #2

; Function Attrs: mustprogress nofree nounwind willreturn
declare double @sqrt(double) local_unnamed_addr #3

; Function Attrs: nofree nounwind
declare noundef i32 @printf(i8* nocapture noundef readonly, ...) local_unnamed_addr #2

; Function Attrs: argmemonly mustprogress nofree nosync nounwind willreturn
declare void @llvm.lifetime.end.p0i8(i64 immarg, i8* nocapture) #1


!llvm.module.flags = !{!0, !1, !2, !3}
!llvm.ident = !{!4}

!0 = !{i32 1, !"wchar_size", i32 4}
!1 = !{i32 7, !"PIC Level", i32 2}
!2 = !{i32 7, !"PIE Level", i32 2}
!3 = !{i32 7, !"uwtable", i32 1}
!4 = !{!"clang version 13.0.0"}
!5 = !{!6, !6, i64 0}
!6 = !{!"double", !7, i64 0}
!7 = !{!"omnipotent char", !8, i64 0}
!8 = !{!"Simple C/C++ TBAA"}
!9 = !{!10, !10, i64 0}
!10 = !{!"int", !7, i64 0}
!11 = distinct !{!11, !12}
!12 = !{!"llvm.loop.mustprogress"}
